target datalayout = "e-m:e-p270:32:32-p271:32:32-p272:64:64-i64:64-i128:128-f80:128-n8:16:32:64-S128"
target triple = "x86_64-pc-linux-gnu"

%struct.yyParser = type { ptr, i32, ptr, [100 x %struct.yyStackEntry], ptr }
%struct.yyStackEntry = type { i8, i8, %union.YYMINORTYPE }
%union.YYMINORTYPE = type { ptr }

; Function Attrs: nounwind null_pointer_is_valid sspstrong uwtable
define hidden void @DfilterInit(ptr noundef %0) #0 {
  %2 = alloca ptr, align 8
  %3 = alloca ptr, align 8
  store ptr %0, ptr %2, align 8
  call void @llvm.lifetime.start.p0(i64 8, ptr %3) #4
  %4 = load ptr, ptr %2, align 8
  store ptr %4, ptr %3, align 8
  %5 = load ptr, ptr %3, align 8
  %6 = getelementptr inbounds nuw %struct.yyParser, ptr %5, i32 0, i32 1
  store i32 -1, ptr %6, align 8
  %7 = load ptr, ptr %3, align 8
  %8 = getelementptr inbounds nuw %struct.yyParser, ptr %7, i32 0, i32 3
  %9 = getelementptr inbounds [100 x %struct.yyStackEntry], ptr %8, i64 0, i64 0
  %10 = load ptr, ptr %3, align 8
  %11 = getelementptr inbounds nuw %struct.yyParser, ptr %10, i32 0, i32 0
  store ptr %9, ptr %11, align 8
  %12 = load ptr, ptr %3, align 8
  %13 = getelementptr inbounds nuw %struct.yyParser, ptr %12, i32 0, i32 3
  %14 = getelementptr [100 x %struct.yyStackEntry], ptr %13, i64 0, i64 0
  %15 = getelementptr inbounds nuw %struct.yyStackEntry, ptr %14, i32 0, i32 0
  store i8 0, ptr %15, align 8
  %16 = load ptr, ptr %3, align 8
  %17 = getelementptr inbounds nuw %struct.yyParser, ptr %16, i32 0, i32 3
  %18 = getelementptr [100 x %struct.yyStackEntry], ptr %17, i64 0, i64 0
  %19 = getelementptr inbounds nuw %struct.yyStackEntry, ptr %18, i32 0, i32 1
  store i8 0, ptr %19, align 1
  %20 = load ptr, ptr %3, align 8
  %21 = getelementptr inbounds nuw %struct.yyParser, ptr %20, i32 0, i32 3
  %22 = getelementptr [100 x %struct.yyStackEntry], ptr %21, i64 0, i64 99
  %23 = load ptr, ptr %3, align 8
  %24 = getelementptr inbounds nuw %struct.yyParser, ptr %23, i32 0, i32 4
  store ptr %22, ptr %24, align 8
  call void @llvm.lifetime.end.p0(i64 8, ptr %3) #4
  ret void
}